target datalayout = "e-m:e-p270:32:32-p271:32:32-p272:64:64-i64:64-i128:128-f80:128-n8:16:32:64-S128"
target triple = "x86_64-pc-linux-gnu"

%class.symbol = type { ptr }
%class.arith_decl_plugin = type <{ %class.decl_plugin.base, [4 x i8], ptr, %class.symbol, %class.symbol, %class.symbol, ptr, ptr, ptr, ptr, ptr, ptr, ptr, ptr, ptr, ptr, ptr, ptr, ptr, ptr, ptr, ptr, ptr, ptr, ptr, ptr, ptr, ptr, ptr, ptr, ptr, ptr, ptr, ptr, ptr, ptr, ptr, ptr, ptr, ptr, ptr, ptr, ptr, ptr, ptr, ptr, ptr, ptr, ptr, ptr, ptr, ptr, %class.ptr_vector, %class.ptr_vector, i8, [7 x i8] }>
%class.decl_plugin.base = type <{ ptr, ptr, i32 }>
%class.ptr_vector = type { %class.vector }
%class.vector = type { ptr }
%class.decl_plugin = type <{ ptr, ptr, i32, [4 x i8] }>

@.str.2 = private unnamed_addr constant [5 x i8] c"Real\00", align 1
@.str.3 = private unnamed_addr constant [4 x i8] c"Int\00", align 1
@.str.37 = private unnamed_addr constant [11 x i8] c"RootObject\00", align 1
@_ZTV11decl_plugin = external unnamed_addr constant { [23 x ptr] }, align 8

; Function Attrs: mustprogress nounwind uwtable
define linkonce_odr hidden void @_ZN6vectorIP3appLb0EjEC2Ev(ptr noundef nonnull align 8 dereferenceable(8) %0) unnamed_addr #5 comdat align 2 {
  %2 = alloca ptr, align 8
  store ptr %0, ptr %2, align 8, !tbaa !181
  %3 = load ptr, ptr %2, align 8
  %4 = getelementptr inbounds nuw %class.vector, ptr %3, i32 0, i32 0
  store ptr null, ptr %4, align 8, !tbaa !186
  ret void
}

; Function Attrs: mustprogress nounwind uwtable
define linkonce_odr hidden void @_ZN11decl_pluginD2Ev(ptr noundef nonnull align 8 dereferenceable(20) %0) unnamed_addr #5 comdat align 2 {
  %2 = alloca ptr, align 8
  store ptr %0, ptr %2, align 8, !tbaa !126
  ret void
}

; Function Attrs: mustprogress nounwind uwtable
define linkonce_odr hidden void @_ZN10ptr_vectorI3appEC2Ev(ptr noundef nonnull align 8 dereferenceable(8) %0) unnamed_addr #5 comdat align 2 {
  %2 = alloca ptr, align 8
  store ptr %0, ptr %2, align 8, !tbaa !179
  %3 = load ptr, ptr %2, align 8
  call void @_ZN6vectorIP3appLb0EjEC2Ev(ptr noundef nonnull align 8 dereferenceable(8) %3) #3
  ret void
}

; Function Attrs: inlinehint mustprogress nounwind uwtable
define linkonce_odr hidden void @_ZN11decl_pluginC2Ev(ptr noundef nonnull align 8 dereferenceable(20) %0) unnamed_addr #9 comdat align 2 {
  %2 = alloca ptr, align 8
  store ptr %0, ptr %2, align 8, !tbaa !126
  %3 = load ptr, ptr %2, align 8
  store ptr getelementptr inbounds inrange(-16, 168) ({ [23 x ptr] }, ptr @_ZTV11decl_plugin, i32 0, i32 0, i32 2), ptr %3, align 8, !tbaa !117
  %4 = getelementptr inbounds nuw %class.decl_plugin, ptr %3, i32 0, i32 1
  store ptr null, ptr %4, align 8, !tbaa !24
  %5 = getelementptr inbounds nuw %class.decl_plugin, ptr %3, i32 0, i32 2
  store i32 -1, ptr %5, align 8, !tbaa !38
  ret void
}

; Function Attrs: mustprogress uwtable
define hidden void @_ZN17arith_decl_pluginC2Ev(ptr noundef nonnull align 8 dereferenceable(441) %0) unnamed_addr #4 align 2 personality ptr @__gxx_personality_v0 {
  %2 = alloca ptr, align 8
  %3 = alloca ptr, align 8
  %4 = alloca i32, align 4
  store ptr %0, ptr %2, align 8, !tbaa !3
  %5 = load ptr, ptr %2, align 8
  call void @_ZN11decl_pluginC2Ev(ptr noundef nonnull align 8 dereferenceable(20) %5) #3
  store ptr getelementptr inbounds inrange(-16, 168) ({ [23 x ptr] }, ptr @_ZTV17arith_decl_plugin, i32 0, i32 0, i32 2), ptr %5, align 8, !tbaa !117
  %6 = getelementptr inbounds nuw %class.arith_decl_plugin, ptr %5, i32 0, i32 2
  store ptr null, ptr %6, align 8, !tbaa !8
  %7 = getelementptr inbounds nuw %class.arith_decl_plugin, ptr %5, i32 0, i32 3
  invoke void @_ZN6symbolC1EPKc(ptr noundef nonnull align 8 dereferenceable(8) %7, ptr noundef @.str.3)
          to label %8 unwind label %62

8:                                                ; preds = %1
  %9 = getelementptr inbounds nuw %class.arith_decl_plugin, ptr %5, i32 0, i32 4
  invoke void @_ZN6symbolC1EPKc(ptr noundef nonnull align 8 dereferenceable(8) %9, ptr noundef @.str.2)
          to label %10 unwind label %62

10:                                               ; preds = %8
  %11 = getelementptr inbounds nuw %class.arith_decl_plugin, ptr %5, i32 0, i32 5
  invoke void @_ZN6symbolC1EPKc(ptr noundef nonnull align 8 dereferenceable(8) %11, ptr noundef @.str.37)
          to label %12 unwind label %62

12:                                               ; preds = %10
  %13 = getelementptr inbounds nuw %class.arith_decl_plugin, ptr %5, i32 0, i32 6
  store ptr null, ptr %13, align 8, !tbaa !37
  %14 = getelementptr inbounds nuw %class.arith_decl_plugin, ptr %5, i32 0, i32 7
  store ptr null, ptr %14, align 8, !tbaa !44
  %15 = getelementptr inbounds nuw %class.arith_decl_plugin, ptr %5, i32 0, i32 8
  store ptr null, ptr %15, align 8, !tbaa !128
  %16 = getelementptr inbounds nuw %class.arith_decl_plugin, ptr %5, i32 0, i32 9
  store ptr null, ptr %16, align 8, !tbaa !129
  %17 = getelementptr inbounds nuw %class.arith_decl_plugin, ptr %5, i32 0, i32 10
  store ptr null, ptr %17, align 8, !tbaa !130
  %18 = getelementptr inbounds nuw %class.arith_decl_plugin, ptr %5, i32 0, i32 11
  store ptr null, ptr %18, align 8, !tbaa !131
  %19 = getelementptr inbounds nuw %class.arith_decl_plugin, ptr %5, i32 0, i32 12
  store ptr null, ptr %19, align 8, !tbaa !136
  %20 = getelementptr inbounds nuw %class.arith_decl_plugin, ptr %5, i32 0, i32 13
  store ptr null, ptr %20, align 8, !tbaa !137
  %21 = getelementptr inbounds nuw %class.arith_decl_plugin, ptr %5, i32 0, i32 14
  store ptr null, ptr %21, align 8, !tbaa !140
  %22 = getelementptr inbounds nuw %class.arith_decl_plugin, ptr %5, i32 0, i32 15
  store ptr null, ptr %22, align 8, !tbaa !138
  %23 = getelementptr inbounds nuw %class.arith_decl_plugin, ptr %5, i32 0, i32 16
  store ptr null, ptr %23, align 8, !tbaa !139
  %24 = getelementptr inbounds nuw %class.arith_decl_plugin, ptr %5, i32 0, i32 17
  store ptr null, ptr %24, align 8, !tbaa !132
  %25 = getelementptr inbounds nuw %class.arith_decl_plugin, ptr %5, i32 0, i32 18
  store ptr null, ptr %25, align 8, !tbaa !133
  %26 = getelementptr inbounds nuw %class.arith_decl_plugin, ptr %5, i32 0, i32 19
  store ptr null, ptr %26, align 8, !tbaa !134
  %27 = getelementptr inbounds nuw %class.arith_decl_plugin, ptr %5, i32 0, i32 20
  store ptr null, ptr %27, align 8, !tbaa !135
  %28 = getelementptr inbounds nuw %class.arith_decl_plugin, ptr %5, i32 0, i32 21
  store ptr null, ptr %28, align 8, !tbaa !141
  %29 = getelementptr inbounds nuw %class.arith_decl_plugin, ptr %5, i32 0, i32 22
  store ptr null, ptr %29, align 8, !tbaa !142
  %30 = getelementptr inbounds nuw %class.arith_decl_plugin, ptr %5, i32 0, i32 23
  store ptr null, ptr %30, align 8, !tbaa !147
  %31 = getelementptr inbounds nuw %class.arith_decl_plugin, ptr %5, i32 0, i32 24
  store ptr null, ptr %31, align 8, !tbaa !143
  %32 = getelementptr inbounds nuw %class.arith_decl_plugin, ptr %5, i32 0, i32 25
  store ptr null, ptr %32, align 8, !tbaa !144
  %33 = getelementptr inbounds nuw %class.arith_decl_plugin, ptr %5, i32 0, i32 26
  store ptr null, ptr %33, align 8, !tbaa !146
  %34 = getelementptr inbounds nuw %class.arith_decl_plugin, ptr %5, i32 0, i32 27
  store ptr null, ptr %34, align 8, !tbaa !145
  %35 = getelementptr inbounds nuw %class.arith_decl_plugin, ptr %5, i32 0, i32 28
  store ptr null, ptr %35, align 8, !tbaa !148
  %36 = getelementptr inbounds nuw %class.arith_decl_plugin, ptr %5, i32 0, i32 29
  store ptr null, ptr %36, align 8, !tbaa !149
  %37 = getelementptr inbounds nuw %class.arith_decl_plugin, ptr %5, i32 0, i32 30
  store ptr null, ptr %37, align 8, !tbaa !150
  %38 = getelementptr inbounds nuw %class.arith_decl_plugin, ptr %5, i32 0, i32 31
  store ptr null, ptr %38, align 8, !tbaa !152
  %39 = getelementptr inbounds nuw %class.arith_decl_plugin, ptr %5, i32 0, i32 32
  store ptr null, ptr %39, align 8, !tbaa !151
  %40 = getelementptr inbounds nuw %class.arith_decl_plugin, ptr %5, i32 0, i32 33
  store ptr null, ptr %40, align 8, !tbaa !154
  %41 = getelementptr inbounds nuw %class.arith_decl_plugin, ptr %5, i32 0, i32 34
  store ptr null, ptr %41, align 8, !tbaa !153
  %42 = getelementptr inbounds nuw %class.arith_decl_plugin, ptr %5, i32 0, i32 35
  store ptr null, ptr %42, align 8, !tbaa !155
  %43 = getelementptr inbounds nuw %class.arith_decl_plugin, ptr %5, i32 0, i32 36
  store ptr null, ptr %43, align 8, !tbaa !156
  %44 = getelementptr inbounds nuw %class.arith_decl_plugin, ptr %5, i32 0, i32 37
  store ptr null, ptr %44, align 8, !tbaa !157
  %45 = getelementptr inbounds nuw %class.arith_decl_plugin, ptr %5, i32 0, i32 38
  store ptr null, ptr %45, align 8, !tbaa !158
  %46 = getelementptr inbounds nuw %class.arith_decl_plugin, ptr %5, i32 0, i32 39
  store ptr null, ptr %46, align 8, !tbaa !159
  %47 = getelementptr inbounds nuw %class.arith_decl_plugin, ptr %5, i32 0, i32 40
  store ptr null, ptr %47, align 8, !tbaa !160
  %48 = getelementptr inbounds nuw %class.arith_decl_plugin, ptr %5, i32 0, i32 41
  store ptr null, ptr %48, align 8, !tbaa !161
  %49 = getelementptr inbounds nuw %class.arith_decl_plugin, ptr %5, i32 0, i32 42
  store ptr null, ptr %49, align 8, !tbaa !162
  %50 = getelementptr inbounds nuw %class.arith_decl_plugin, ptr %5, i32 0, i32 43
  store ptr null, ptr %50, align 8, !tbaa !163
  %51 = getelementptr inbounds nuw %class.arith_decl_plugin, ptr %5, i32 0, i32 44
  store ptr null, ptr %51, align 8, !tbaa !164
  %52 = getelementptr inbounds nuw %class.arith_decl_plugin, ptr %5, i32 0, i32 45
  store ptr null, ptr %52, align 8, !tbaa !165
  %53 = getelementptr inbounds nuw %class.arith_decl_plugin, ptr %5, i32 0, i32 46
  store ptr null, ptr %53, align 8, !tbaa !166
  %54 = getelementptr inbounds nuw %class.arith_decl_plugin, ptr %5, i32 0, i32 47
  store ptr null, ptr %54, align 8, !tbaa !167
  %55 = getelementptr inbounds nuw %class.arith_decl_plugin, ptr %5, i32 0, i32 48
  store ptr null, ptr %55, align 8, !tbaa !168
  %56 = getelementptr inbounds nuw %class.arith_decl_plugin, ptr %5, i32 0, i32 49
  store ptr null, ptr %56, align 8, !tbaa !169
  %57 = getelementptr inbounds nuw %class.arith_decl_plugin, ptr %5, i32 0, i32 50
  store ptr null, ptr %57, align 8, !tbaa !170
  %58 = getelementptr inbounds nuw %class.arith_decl_plugin, ptr %5, i32 0, i32 51
  store ptr null, ptr %58, align 8, !tbaa !171
  %59 = getelementptr inbounds nuw %class.arith_decl_plugin, ptr %5, i32 0, i32 52
  call void @_ZN10ptr_vectorI3appEC2Ev(ptr noundef nonnull align 8 dereferenceable(8) %59) #3
  %60 = getelementptr inbounds nuw %class.arith_decl_plugin, ptr %5, i32 0, i32 53
  call void @_ZN10ptr_vectorI3appEC2Ev(ptr noundef nonnull align 8 dereferenceable(8) %60) #3
  %61 = getelementptr inbounds nuw %class.arith_decl_plugin, ptr %5, i32 0, i32 54
  store i8 0, ptr %61, align 8, !tbaa !43
  ret void

62:                                               ; preds = %10, %8, %1
  %63 = landingpad { ptr, i32 }
          cleanup
  %64 = extractvalue { ptr, i32 } %63, 0
  store ptr %64, ptr %3, align 8
  %65 = extractvalue { ptr, i32 } %63, 1
  store i32 %65, ptr %4, align 4
  call void @_ZN11decl_pluginD2Ev(ptr noundef nonnull align 8 dereferenceable(20) %5) #3
  br label %66

66:                                               ; preds = %62
  %67 = load ptr, ptr %3, align 8
  %68 = load i32, ptr %4, align 4
  %69 = insertvalue { ptr, i32 } poison, ptr %67, 0
  %70 = insertvalue { ptr, i32 } %69, i32 %68, 1
  resume { ptr, i32 } %70
}